; Function Attrs: mustprogress uwtable
define void @_ZN8QuantLib9AssetSwap7results5resetEv(ptr noundef nonnull align 8 dereferenceable(208) %this) unnamed_addr #8 align 2 {
entry:
  tail call void @_ZN8QuantLib4Swap7results5resetEv(ptr noundef nonnull align 8 dereferenceable(184) %this)
  %fairSpread = getelementptr inbounds nuw i8, ptr %this, i64 184
  store double 0x47EFFFFFE0000000, ptr %fairSpread, align 8, !tbaa !184
  %fairCleanPrice = getelementptr inbounds nuw i8, ptr %this, i64 192
  store double 0x47EFFFFFE0000000, ptr %fairCleanPrice, align 8, !tbaa !188
  %fairNonParRepayment = getelementptr inbounds nuw i8, ptr %this, i64 200
  store double 0x47EFFFFFE0000000, ptr %fairNonParRepayment, align 8, !tbaa !189
  ret void
}